target datalayout = "e-m:e-p270:32:32-p271:32:32-p272:64:64-i64:64-i128:128-f80:128-n8:16:32:64-S128"
target triple = "x86_64-pc-linux-gnu"

@hf_cic_range_mask = internal global i32 0, align 4
@hf_cic_range_pc = internal global i32 0, align 4
@hf_cic_range_lower = internal global i32 0, align 4
@hf_cic_range_upper = internal global i32 0, align 4
@ett_parameter = internal global i32 0, align 4
@.str.342 = private unnamed_addr constant [1 x i8] zeroinitializer, align 1
@.str.343 = private unnamed_addr constant [2 x i8] c"s\00", align 1
@.str.344 = private unnamed_addr constant [6 x i8] c" (%s)\00", align 1
@.str.363 = private unnamed_addr constant [10 x i8] c"CIC range\00", align 1
@.str.364 = private unnamed_addr constant [13 x i8] c" (%s: %d-%d)\00", align 1
@.str.365 = private unnamed_addr constant [14 x i8] c" (%u range%s)\00", align 1

; Function Attrs: null_pointer_is_valid sspstrong uwtable
define internal void @dissect_circuit_range_parameter(ptr noundef %0, ptr noundef %1, ptr noundef %2) #0 {
  %4 = alloca ptr, align 8
  %5 = alloca ptr, align 8
  %6 = alloca ptr, align 8
  %7 = alloca i16, align 2
  %8 = alloca i16, align 2
  %9 = alloca i16, align 2
  %10 = alloca i16, align 2
  %11 = alloca i16, align 2
  %12 = alloca i32, align 4
  %13 = alloca i32, align 4
  %14 = alloca ptr, align 8
  %15 = alloca ptr, align 8
  %16 = alloca ptr, align 8
  %17 = alloca ptr, align 8
  store ptr %0, ptr %4, align 8
  store ptr %1, ptr %5, align 8
  store ptr %2, ptr %6, align 8
  call void @llvm.lifetime.start.p0(i64 2, ptr %7) #6
  call void @llvm.lifetime.start.p0(i64 2, ptr %8) #6
  call void @llvm.lifetime.start.p0(i64 2, ptr %9) #6
  call void @llvm.lifetime.start.p0(i64 2, ptr %10) #6
  call void @llvm.lifetime.start.p0(i64 2, ptr %11) #6
  call void @llvm.lifetime.start.p0(i64 4, ptr %12) #6
  call void @llvm.lifetime.start.p0(i64 4, ptr %13) #6
  call void @llvm.lifetime.start.p0(i64 8, ptr %14) #6
  call void @llvm.lifetime.start.p0(i64 8, ptr %15) #6
  call void @llvm.lifetime.start.p0(i64 8, ptr %16) #6
  call void @llvm.lifetime.start.p0(i64 8, ptr %17) #6
  %18 = load ptr, ptr %4, align 8
  %19 = call zeroext i16 @tvb_get_ntohs(ptr noundef %18, i32 noundef 2)
  store i16 %19, ptr %7, align 2
  %20 = load i16, ptr %7, align 2
  %21 = zext i16 %20 to i32
  %22 = sub i32 %21, 4
  %23 = sdiv i32 %22, 8
  %24 = trunc i32 %23 to i16
  store i16 %24, ptr %8, align 2
  store i32 4, ptr %13, align 4
  store i16 0, ptr %9, align 2
  br label %25

25:                                               ; preds = %89, %3
  %26 = load i16, ptr %9, align 2
  %27 = zext i16 %26 to i32
  %28 = load i16, ptr %8, align 2
  %29 = zext i16 %28 to i32
  %30 = icmp slt i32 %27, %29
  br i1 %30, label %31, label %92

31:                                               ; preds = %25
  %32 = load ptr, ptr %5, align 8
  %33 = load ptr, ptr %4, align 8
  %34 = load i32, ptr %13, align 4
  %35 = add i32 %34, 0
  %36 = load i32, ptr @ett_parameter, align 4
  %37 = call ptr @proto_tree_add_subtree(ptr noundef %32, ptr noundef %33, i32 noundef %35, i32 noundef 8, i32 noundef %36, ptr noundef %15, ptr noundef @.str.363)
  store ptr %37, ptr %16, align 8
  %38 = load ptr, ptr %16, align 8
  %39 = load i32, ptr @hf_cic_range_mask, align 4
  %40 = load ptr, ptr %4, align 8
  %41 = load i32, ptr %13, align 4
  %42 = add i32 %41, 0
  %43 = call ptr @proto_tree_add_item(ptr noundef %38, i32 noundef %39, ptr noundef %40, i32 noundef %42, i32 noundef 1, i32 noundef 0)
  %44 = load ptr, ptr %4, align 8
  %45 = load i32, ptr %13, align 4
  %46 = add i32 %45, 1
  %47 = call i32 @tvb_get_ntoh24(ptr noundef %44, i32 noundef %46)
  store i32 %47, ptr %12, align 4
  %48 = load i32, ptr %12, align 4
  %49 = call ptr @mtp3_pc_to_str(i32 noundef %48)
  store ptr %49, ptr %17, align 8
  %50 = load ptr, ptr %16, align 8
  %51 = load i32, ptr @hf_cic_range_pc, align 4
  %52 = load ptr, ptr %4, align 8
  %53 = load i32, ptr %13, align 4
  %54 = add i32 %53, 1
  %55 = call ptr @proto_tree_add_item(ptr noundef %50, i32 noundef %51, ptr noundef %52, i32 noundef %54, i32 noundef 3, i32 noundef 0)
  store ptr %55, ptr %14, align 8
  %56 = call zeroext i1 @mtp3_pc_structured()
  br i1 %56, label %57, label %60

57:                                               ; preds = %31
  %58 = load ptr, ptr %14, align 8
  %59 = load ptr, ptr %17, align 8
  call void (ptr, ptr, ...) @proto_item_append_text(ptr noundef %58, ptr noundef @.str.344, ptr noundef %59)
  br label %60

60:                                               ; preds = %57, %31
  %61 = load ptr, ptr %4, align 8
  %62 = load i32, ptr %13, align 4
  %63 = add i32 %62, 4
  %64 = call zeroext i16 @tvb_get_ntohs(ptr noundef %61, i32 noundef %63)
  store i16 %64, ptr %10, align 2
  %65 = load ptr, ptr %16, align 8
  %66 = load i32, ptr @hf_cic_range_lower, align 4
  %67 = load ptr, ptr %4, align 8
  %68 = load i32, ptr %13, align 4
  %69 = add i32 %68, 4
  %70 = call ptr @proto_tree_add_item(ptr noundef %65, i32 noundef %66, ptr noundef %67, i32 noundef %69, i32 noundef 2, i32 noundef 0)
  %71 = load ptr, ptr %4, align 8
  %72 = load i32, ptr %13, align 4
  %73 = add i32 %72, 6
  %74 = call zeroext i16 @tvb_get_ntohs(ptr noundef %71, i32 noundef %73)
  store i16 %74, ptr %11, align 2
  %75 = load ptr, ptr %16, align 8
  %76 = load i32, ptr @hf_cic_range_upper, align 4
  %77 = load ptr, ptr %4, align 8
  %78 = load i32, ptr %13, align 4
  %79 = add i32 %78, 6
  %80 = call ptr @proto_tree_add_item(ptr noundef %75, i32 noundef %76, ptr noundef %77, i32 noundef %79, i32 noundef 2, i32 noundef 0)
  %81 = load ptr, ptr %15, align 8
  %82 = load ptr, ptr %17, align 8
  %83 = load i16, ptr %10, align 2
  %84 = zext i16 %83 to i32
  %85 = load i16, ptr %11, align 2
  %86 = zext i16 %85 to i32
  call void (ptr, ptr, ...) @proto_item_append_text(ptr noundef %81, ptr noundef @.str.364, ptr noundef %82, i32 noundef %84, i32 noundef %86)
  %87 = load i32, ptr %13, align 4
  %88 = add i32 %87, 8
  store i32 %88, ptr %13, align 4
  br label %89

89:                                               ; preds = %60
  %90 = load i16, ptr %9, align 2
  %91 = add i16 %90, 1
  store i16 %91, ptr %9, align 2
  br label %25, !llvm.loop !15

92:                                               ; preds = %25
  %93 = load ptr, ptr %6, align 8
  %94 = load i16, ptr %8, align 2
  %95 = zext i16 %94 to i32
  %96 = load i16, ptr %8, align 2
  %97 = zext i16 %96 to i32
  %98 = icmp eq i32 %97, 1
  %99 = select i1 %98, ptr @.str.342, ptr @.str.343
  call void (ptr, ptr, ...) @proto_item_append_text(ptr noundef %93, ptr noundef @.str.365, i32 noundef %95, ptr noundef %99)
  call void @llvm.lifetime.end.p0(i64 8, ptr %17) #6
  call void @llvm.lifetime.end.p0(i64 8, ptr %16) #6
  call void @llvm.lifetime.end.p0(i64 8, ptr %15) #6
  call void @llvm.lifetime.end.p0(i64 8, ptr %14) #6
  call void @llvm.lifetime.end.p0(i64 4, ptr %13) #6
  call void @llvm.lifetime.end.p0(i64 4, ptr %12) #6
  call void @llvm.lifetime.end.p0(i64 2, ptr %11) #6
  call void @llvm.lifetime.end.p0(i64 2, ptr %10) #6
  call void @llvm.lifetime.end.p0(i64 2, ptr %9) #6
  call void @llvm.lifetime.end.p0(i64 2, ptr %8) #6
  call void @llvm.lifetime.end.p0(i64 2, ptr %7) #6
  ret void
}