; Function Attrs: null_pointer_is_valid sspstrong uwtable
define internal fastcc void @dissect_circuit_range_parameter(ptr noundef %0, ptr noundef %1, ptr noundef %2) unnamed_addr #0 {
  %4 = alloca ptr, align 8
  call void @llvm.lifetime.start.p0(i64 8, ptr nonnull %4) #6
  %5 = tail call zeroext i16 @tvb_get_ntohs(ptr noundef %0, i32 noundef 2)
  %6 = zext i16 %5 to i32
  %7 = add nsw i32 %6, -4
  %8 = sdiv i32 %7, 8
  %.not = icmp ult i16 %5, 12
  br i1 %.not, label %._crit_edge, label %.lr.ph

.lr.ph:                                           ; preds = %3, %20
  %indvars.iv = phi i32 [ %indvars.iv.next, %20 ], [ 0, %3 ]
  %.03537 = phi i32 [ %32, %20 ], [ 4, %3 ]
  %9 = load i32, ptr @ett_parameter, align 4
  %10 = call ptr @proto_tree_add_subtree(ptr noundef %1, ptr noundef %0, i32 noundef %.03537, i32 noundef 8, i32 noundef %9, ptr noundef nonnull %4, ptr noundef nonnull @.str.363)
  %11 = load i32, ptr @hf_cic_range_mask, align 4
  %12 = call ptr @proto_tree_add_item(ptr noundef %10, i32 noundef %11, ptr noundef %0, i32 noundef %.03537, i32 noundef 1, i32 noundef 0)
  %13 = or disjoint i32 %.03537, 1
  %14 = call i32 @tvb_get_ntoh24(ptr noundef %0, i32 noundef %13)
  %15 = call ptr @mtp3_pc_to_str(i32 noundef %14)
  %16 = load i32, ptr @hf_cic_range_pc, align 4
  %17 = call ptr @proto_tree_add_item(ptr noundef %10, i32 noundef %16, ptr noundef %0, i32 noundef %13, i32 noundef 3, i32 noundef 0)
  %18 = call zeroext i1 @mtp3_pc_structured()
  br i1 %18, label %19, label %20

19:                                               ; preds = %.lr.ph
  call void (ptr, ptr, ...) @proto_item_append_text(ptr noundef %17, ptr noundef nonnull @.str.344, ptr noundef %15)
  br label %20

20:                                               ; preds = %19, %.lr.ph
  %21 = add nuw nsw i32 %.03537, 4
  %22 = call zeroext i16 @tvb_get_ntohs(ptr noundef %0, i32 noundef %21)
  %23 = load i32, ptr @hf_cic_range_lower, align 4
  %24 = call ptr @proto_tree_add_item(ptr noundef %10, i32 noundef %23, ptr noundef %0, i32 noundef %21, i32 noundef 2, i32 noundef 0)
  %25 = add nuw nsw i32 %.03537, 6
  %26 = call zeroext i16 @tvb_get_ntohs(ptr noundef %0, i32 noundef %25)
  %27 = load i32, ptr @hf_cic_range_upper, align 4
  %28 = call ptr @proto_tree_add_item(ptr noundef %10, i32 noundef %27, ptr noundef %0, i32 noundef %25, i32 noundef 2, i32 noundef 0)
  %29 = load ptr, ptr %4, align 8
  %30 = zext i16 %22 to i32
  %31 = zext i16 %26 to i32
  call void (ptr, ptr, ...) @proto_item_append_text(ptr noundef %29, ptr noundef nonnull @.str.364, ptr noundef %15, i32 noundef %30, i32 noundef %31)
  %32 = add nuw nsw i32 %.03537, 8
  %indvars.iv.next = add nuw nsw i32 %indvars.iv, 1
  %exitcond.not = icmp eq i32 %indvars.iv.next, %8
  br i1 %exitcond.not, label %._crit_edge, label %.lr.ph, !llvm.loop !15

._crit_edge:                                      ; preds = %20, %3
  %33 = add i16 %5, -12
  %34 = icmp ult i16 %33, 8
  %35 = select i1 %34, ptr @.str.342, ptr @.str.343
  call void (ptr, ptr, ...) @proto_item_append_text(ptr noundef %2, ptr noundef nonnull @.str.365, i32 noundef %8, ptr noundef nonnull %35)
  call void @llvm.lifetime.end.p0(i64 8, ptr nonnull %4) #6
  ret void
}